; Function Attrs: mustprogress nofree norecurse nosync nounwind willreturn memory(argmem: readwrite, inaccessiblemem: write) uwtable
define internal void @_ZZ34test_submodule_custom_type_castersRN8pybind117module_EEN12ArgInspector1fE13ArgInspector117ArgAlwaysConverts(ptr dead_on_unwind noalias writable sret(%class.ArgInspector1) align 8 %0, ptr nonnull readnone align 1 captures(none) %1, ptr noundef %2) #10 align 2 personality ptr @__gxx_personality_v0 {
  %4 = getelementptr inbounds nuw i8, ptr %0, i64 16
  store ptr %4, ptr %0, align 8, !tbaa !74
  %5 = load ptr, ptr %2, align 8, !tbaa !11
  %6 = getelementptr inbounds nuw i8, ptr %2, i64 16
  %7 = icmp eq ptr %5, %6
  br i1 %7, label %8, label %_ZNKSt7__cxx1112basic_stringIcSt11char_traitsIcESaIcEE11_M_is_localEv.exit.i.i

8:                                                ; preds = %3
  %9 = getelementptr inbounds nuw i8, ptr %2, i64 8
  %10 = load i64, ptr %9, align 8, !tbaa !78
  %11 = icmp ult i64 %10, 16
  tail call void @llvm.assume(i1 %11)
  %12 = add nuw nsw i64 %10, 1
  tail call void @llvm.memcpy.p0.p0.i64(ptr noundef nonnull align 8 dereferenceable(1) %4, ptr noundef nonnull align 8 dereferenceable(1) %6, i64 %12, i1 false)
  br label %_ZN13ArgInspector1C2EOS_.exit

_ZNKSt7__cxx1112basic_stringIcSt11char_traitsIcESaIcEE11_M_is_localEv.exit.i.i: ; preds = %3
  store ptr %5, ptr %0, align 8, !tbaa !11
  %13 = load i64, ptr %6, align 8, !tbaa !79
  store i64 %13, ptr %4, align 8, !tbaa !79
  %.phi.trans.insert = getelementptr inbounds nuw i8, ptr %2, i64 8
  %.pre = load i64, ptr %.phi.trans.insert, align 8, !tbaa !78
  br label %_ZN13ArgInspector1C2EOS_.exit

_ZN13ArgInspector1C2EOS_.exit:                    ; preds = %8, %_ZNKSt7__cxx1112basic_stringIcSt11char_traitsIcESaIcEE11_M_is_localEv.exit.i.i
  %14 = phi i64 [ %10, %8 ], [ %.pre, %_ZNKSt7__cxx1112basic_stringIcSt11char_traitsIcESaIcEE11_M_is_localEv.exit.i.i ]
  %15 = getelementptr inbounds nuw i8, ptr %2, i64 8
  %16 = getelementptr inbounds nuw i8, ptr %0, i64 8
  store i64 %14, ptr %16, align 8, !tbaa !78
  store ptr %6, ptr %2, align 8, !tbaa !11
  store i64 0, ptr %15, align 8, !tbaa !78
  store i8 0, ptr %6, align 1, !tbaa !79
  ret void
}